target datalayout = "e-m:e-p270:32:32-p271:32:32-p272:64:64-i64:64-i128:128-f80:128-n8:16:32:64-S128"
target triple = "x86_64-pc-linux-gnu"

%struct._php_ps_globals = type { ptr, ptr, ptr, ptr, ptr, i64, ptr, ptr, ptr, i8, i8, ptr, ptr, ptr, i32, ptr, i32, i32, %struct._php_random_status_state_pcgoneseq128xslrr64, %struct._php_random_algo_with_state, i64, i64, i64, i64, %struct.anon, ptr, i8, i8, i8, i8, i8, i8, i8, i8, ptr, %struct._zval_struct, i64, i64, ptr, ptr, ptr, i64, double, i8, i8, i8, i8, i8, i8, ptr }
%struct._php_random_status_state_pcgoneseq128xslrr64 = type { i128 }
%struct._php_random_algo_with_state = type { ptr, ptr }
%struct.anon = type { %struct._zval_struct, %struct._zval_struct, %struct._zval_struct, %struct._zval_struct, %struct._zval_struct, %struct._zval_struct, %struct._zval_struct, %struct._zval_struct, %struct._zval_struct }
%struct._zval_struct = type { %union._zend_value, %union.anon, %union.anon.3 }
%union._zend_value = type { i64 }
%union.anon = type { i32 }
%union.anon.3 = type { i32 }
%struct._zend_array = type { %struct._zend_refcounted_h, %union.anon.5, i32, %union.anon.7, i32, i32, i32, i32, i64, ptr }
%struct._zend_refcounted_h = type { i32, %union.anon.4 }
%union.anon.4 = type { i32 }
%union.anon.5 = type { i32 }
%union.anon.7 = type { ptr }
%struct._zend_llist = type { ptr, ptr, i64, i64, ptr, i8, ptr }
%struct._sapi_globals_struct = type { ptr, %struct.sapi_request_info, %struct.sapi_headers_struct, i64, i8, i8, %struct.stat, ptr, ptr, ptr, i64, i32, i8, double, %struct._zend_array, %struct._zval_struct, %struct._zend_fcall_info_cache, %struct.sapi_request_parse_body_context }
%struct.sapi_request_info = type { ptr, ptr, ptr, i64, ptr, ptr, ptr, ptr, i8, i8, i8, ptr, ptr, ptr, ptr, ptr, ptr, ptr, i32, i32, ptr, i32 }
%struct.sapi_headers_struct = type { %struct._zend_llist, i32, i8, ptr, ptr }
%struct.stat = type { i64, i64, i64, i32, i32, i32, i32, i64, i64, i64, i64, %struct.timespec, %struct.timespec, %struct.timespec, [3 x i64] }
%struct.timespec = type { i64, i64 }
%struct._zend_fcall_info_cache = type { ptr, ptr, ptr, ptr, ptr }
%struct.sapi_request_parse_body_context = type { i8, [5 x %struct.anon.9] }
%struct.anon.9 = type { i8, i64 }
%struct._zend_string = type { %struct._zend_refcounted_h, i64, i64, [1 x i8] }

@ps_globals = global %struct._php_ps_globals zeroinitializer, align 16
@sapi_globals = external global %struct._sapi_globals_struct, align 8
@.str.237 = private unnamed_addr constant [64 x i8] c"Session ini settings cannot be changed when a session is active\00", align 1
@.str.238 = private unnamed_addr constant [76 x i8] c"Session ini settings cannot be changed after headers have already been sent\00", align 1
@.str.245 = private unnamed_addr constant [79 x i8] c"session.configuration \22session.sid_bits_per_character\22 must be between 4 and 6\00", align 1

; Function Attrs: nounwind uwtable
define internal i32 @OnUpdateSidBits(ptr noundef %0, ptr noundef %1, ptr noundef %2, ptr noundef %3, ptr noundef %4, i32 noundef %5) #0 {
  %7 = alloca i32, align 4
  %8 = alloca ptr, align 8
  %9 = alloca ptr, align 8
  %10 = alloca ptr, align 8
  %11 = alloca ptr, align 8
  %12 = alloca ptr, align 8
  %13 = alloca i32, align 4
  %14 = alloca i64, align 8
  %15 = alloca ptr, align 8
  store ptr %0, ptr %8, align 8
  store ptr %1, ptr %9, align 8
  store ptr %2, ptr %10, align 8
  store ptr %3, ptr %11, align 8
  store ptr %4, ptr %12, align 8
  store i32 %5, ptr %13, align 4
  store ptr null, ptr %15, align 8
  %16 = load i32, ptr getelementptr inbounds (%struct._php_ps_globals, ptr @ps_globals, i32 0, i32 14), align 8
  %17 = icmp eq i32 %16, 2
  br i1 %17, label %18, label %19

18:                                               ; preds = %6
  call void (ptr, i32, ptr, ...) @php_error_docref(ptr noundef null, i32 noundef 2, ptr noundef @.str.237)
  store i32 -1, ptr %7, align 4
  br label %48

19:                                               ; preds = %6
  %20 = load i8, ptr getelementptr inbounds (%struct._sapi_globals_struct, ptr @sapi_globals, i32 0, i32 5), align 1
  %21 = zext i8 %20 to i32
  %22 = icmp ne i32 %21, 0
  br i1 %22, label %23, label %27

23:                                               ; preds = %19
  %24 = load i32, ptr %13, align 4
  %25 = icmp ne i32 %24, 8
  br i1 %25, label %26, label %27

26:                                               ; preds = %23
  call void (ptr, i32, ptr, ...) @php_error_docref(ptr noundef null, i32 noundef 2, ptr noundef @.str.238)
  store i32 -1, ptr %7, align 4
  br label %48

27:                                               ; preds = %23, %19
  %28 = load ptr, ptr %9, align 8
  %29 = getelementptr inbounds %struct._zend_string, ptr %28, i32 0, i32 3
  %30 = getelementptr inbounds [1 x i8], ptr %29, i64 0, i64 0
  %31 = call i64 @strtoll(ptr noundef %30, ptr noundef %15, i32 noundef 10) #14
  store i64 %31, ptr %14, align 8
  %32 = load ptr, ptr %15, align 8
  %33 = icmp ne ptr %32, null
  br i1 %33, label %34, label %47

34:                                               ; preds = %27
  %35 = load ptr, ptr %15, align 8
  %36 = load i8, ptr %35, align 1
  %37 = sext i8 %36 to i32
  %38 = icmp eq i32 %37, 0
  br i1 %38, label %39, label %47

39:                                               ; preds = %34
  %40 = load i64, ptr %14, align 8
  %41 = icmp sge i64 %40, 4
  br i1 %41, label %42, label %47

42:                                               ; preds = %39
  %43 = load i64, ptr %14, align 8
  %44 = icmp sle i64 %43, 6
  br i1 %44, label %45, label %47

45:                                               ; preds = %42
  %46 = load i64, ptr %14, align 8
  store i64 %46, ptr getelementptr inbounds (%struct._php_ps_globals, ptr @ps_globals, i32 0, i32 37), align 16
  store i32 0, ptr %7, align 4
  br label %48

47:                                               ; preds = %42, %39, %34, %27
  call void (ptr, i32, ptr, ...) @php_error_docref(ptr noundef null, i32 noundef 2, ptr noundef @.str.245)
  store i32 -1, ptr %7, align 4
  br label %48

48:                                               ; preds = %47, %45, %26, %18
  %49 = load i32, ptr %7, align 4
  ret i32 %49
}